target datalayout = "e-m:e-p270:32:32-p271:32:32-p272:64:64-i64:64-i128:128-f80:128-n8:16:32:64-S128"
target triple = "x86_64-unknown-linux-gnu"

%"class.absl::Mutex" = type { %"struct.std::atomic" }
%"struct.std::atomic" = type { %"struct.std::__atomic_base" }
%"struct.std::__atomic_base" = type { i64 }
%"struct.(anonymous namespace)::ReaderDecrementBugStruct" = type { i8, i32, %"class.absl::Mutex", i8, i8, i8, %"class.absl::Mutex" }

; Function Attrs: mustprogress uwtable
define internal noundef zeroext i1 @_ZN12_GLOBAL__N_16IsCondEPv(ptr noundef %v) #4 {
entry:
  %v.addr = alloca ptr, align 8
  %x = alloca ptr, align 8
  store ptr %v, ptr %v.addr, align 8
  %0 = load ptr, ptr %v.addr, align 8
  store ptr %0, ptr %x, align 8
  %1 = load ptr, ptr %x, align 8
  %mu2 = getelementptr inbounds %"struct.(anonymous namespace)::ReaderDecrementBugStruct", ptr %1, i32 0, i32 6
  call void @_ZN4absl5Mutex4LockEv(ptr noundef nonnull align 8 dereferenceable(8) %mu2)
  %2 = load ptr, ptr %x, align 8
  %waiting_on_cond = getelementptr inbounds %"struct.(anonymous namespace)::ReaderDecrementBugStruct", ptr %2, i32 0, i32 3
  store i8 1, ptr %waiting_on_cond, align 8
  %3 = load ptr, ptr %x, align 8
  %mu21 = getelementptr inbounds %"struct.(anonymous namespace)::ReaderDecrementBugStruct", ptr %3, i32 0, i32 6
  call void @_ZN4absl5Mutex6UnlockEv(ptr noundef nonnull align 8 dereferenceable(8) %mu21)
  %4 = load ptr, ptr %x, align 8
  %cond = getelementptr inbounds %"struct.(anonymous namespace)::ReaderDecrementBugStruct", ptr %4, i32 0, i32 0
  %5 = load i8, ptr %cond, align 8
  %tobool = trunc i8 %5 to i1
  ret i1 %tobool
}